; ModuleID = '33/1553.c'
source_filename = "33/1553.c"
target datalayout = "e-m:e-p270:32:32-p271:32:32-p272:64:64-i64:64-f80:128-n8:16:32:64-S128"
target triple = "x86_64-pc-linux-gnu"

@.str = private unnamed_addr constant [4 x i8] c"%d\0A\00", align 1
@.str.1 = private unnamed_addr constant [4 x i8] c"%s\0A\00", align 1
@.str.2 = private unnamed_addr constant [3 x i8] c"%s\00", align 1

; Function Attrs: noinline nounwind uwtable
define dso_local i32 @main() #0 {
  %1 = alloca i32, align 4
  %2 = alloca i32, align 4
  %3 = alloca i8*, align 8
  %4 = alloca i64, align 8
  %5 = alloca i64, align 8
  %6 = alloca i32, align 4
  %7 = alloca i32, align 4
  %8 = alloca i32, align 4
  %9 = alloca i32, align 4
  store i32 0, i32* %1, align 4
  %10 = call i32 (i8*, ...) @__isoc99_scanf(i8* getelementptr inbounds ([4 x i8], [4 x i8]* @.str, i64 0, i64 0), i32* %2)
  %11 = load i32, i32* %2, align 4
  %12 = zext i32 %11 to i64
  %13 = call i8* @llvm.stacksave()
  store i8* %13, i8** %3, align 8
  %14 = alloca [256 x i8], i64 %12, align 16
  store i64 %12, i64* %4, align 8
  %15 = load i32, i32* %2, align 4
  %16 = zext i32 %15 to i64
  %17 = alloca [256 x i8], i64 %16, align 16
  store i64 %16, i64* %5, align 8
  store i32 1, i32* %6, align 4
  br label %18

18:                                               ; preds = %134, %0
  %19 = load i32, i32* %6, align 4
  %20 = load i32, i32* %2, align 4
  %21 = icmp sle i32 %19, %20
  br i1 %21, label %22, label %137

22:                                               ; preds = %18
  %23 = load i32, i32* %6, align 4
  %24 = sub nsw i32 %23, 1
  %25 = sext i32 %24 to i64
  %26 = getelementptr inbounds [256 x i8], [256 x i8]* %14, i64 %25
  %27 = getelementptr inbounds [256 x i8], [256 x i8]* %26, i64 0, i64 0
  %28 = call i32 (i8*, ...) @__isoc99_scanf(i8* getelementptr inbounds ([4 x i8], [4 x i8]* @.str.1, i64 0, i64 0), i8* %27)
  store i32 1, i32* %7, align 4
  store i32 1, i32* %8, align 4
  br label %29

29:                                               ; preds = %130, %22
  %30 = load i32, i32* %8, align 4
  %31 = icmp ne i32 %30, 0
  br i1 %31, label %32, label %133

32:                                               ; preds = %29
  %33 = load i32, i32* %6, align 4
  %34 = sub nsw i32 %33, 1
  %35 = sext i32 %34 to i64
  %36 = getelementptr inbounds [256 x i8], [256 x i8]* %14, i64 %35
  %37 = load i32, i32* %7, align 4
  %38 = sub nsw i32 %37, 1
  %39 = sext i32 %38 to i64
  %40 = getelementptr inbounds [256 x i8], [256 x i8]* %36, i64 0, i64 %39
  %41 = load i8, i8* %40, align 1
  %42 = sext i8 %41 to i32
  %43 = icmp eq i32 %42, 65
  br i1 %43, label %44, label %53

44:                                               ; preds = %32
  %45 = load i32, i32* %6, align 4
  %46 = sub nsw i32 %45, 1
  %47 = sext i32 %46 to i64
  %48 = getelementptr inbounds [256 x i8], [256 x i8]* %17, i64 %47
  %49 = load i32, i32* %7, align 4
  %50 = sub nsw i32 %49, 1
  %51 = sext i32 %50 to i64
  %52 = getelementptr inbounds [256 x i8], [256 x i8]* %48, i64 0, i64 %51
  store i8 84, i8* %52, align 1
  br label %53

53:                                               ; preds = %44, %32
  %54 = load i32, i32* %6, align 4
  %55 = sub nsw i32 %54, 1
  %56 = sext i32 %55 to i64
  %57 = getelementptr inbounds [256 x i8], [256 x i8]* %14, i64 %56
  %58 = load i32, i32* %7, align 4
  %59 = sub nsw i32 %58, 1
  %60 = sext i32 %59 to i64
  %61 = getelementptr inbounds [256 x i8], [256 x i8]* %57, i64 0, i64 %60
  %62 = load i8, i8* %61, align 1
  %63 = sext i8 %62 to i32
  %64 = icmp eq i32 %63, 84
  br i1 %64, label %65, label %74

65:                                               ; preds = %53
  %66 = load i32, i32* %6, align 4
  %67 = sub nsw i32 %66, 1
  %68 = sext i32 %67 to i64
  %69 = getelementptr inbounds [256 x i8], [256 x i8]* %17, i64 %68
  %70 = load i32, i32* %7, align 4
  %71 = sub nsw i32 %70, 1
  %72 = sext i32 %71 to i64
  %73 = getelementptr inbounds [256 x i8], [256 x i8]* %69, i64 0, i64 %72
  store i8 65, i8* %73, align 1
  br label %74

74:                                               ; preds = %65, %53
  %75 = load i32, i32* %6, align 4
  %76 = sub nsw i32 %75, 1
  %77 = sext i32 %76 to i64
  %78 = getelementptr inbounds [256 x i8], [256 x i8]* %14, i64 %77
  %79 = load i32, i32* %7, align 4
  %80 = sub nsw i32 %79, 1
  %81 = sext i32 %80 to i64
  %82 = getelementptr inbounds [256 x i8], [256 x i8]* %78, i64 0, i64 %81
  %83 = load i8, i8* %82, align 1
  %84 = sext i8 %83 to i32
  %85 = icmp eq i32 %84, 67
  br i1 %85, label %86, label %95

86:                                               ; preds = %74
  %87 = load i32, i32* %6, align 4
  %88 = sub nsw i32 %87, 1
  %89 = sext i32 %88 to i64
  %90 = getelementptr inbounds [256 x i8], [256 x i8]* %17, i64 %89
  %91 = load i32, i32* %7, align 4
  %92 = sub nsw i32 %91, 1
  %93 = sext i32 %92 to i64
  %94 = getelementptr inbounds [256 x i8], [256 x i8]* %90, i64 0, i64 %93
  store i8 71, i8* %94, align 1
  br label %95

95:                                               ; preds = %86, %74
  %96 = load i32, i32* %6, align 4
  %97 = sub nsw i32 %96, 1
  %98 = sext i32 %97 to i64
  %99 = getelementptr inbounds [256 x i8], [256 x i8]* %14, i64 %98
  %100 = load i32, i32* %7, align 4
  %101 = sub nsw i32 %100, 1
  %102 = sext i32 %101 to i64
  %103 = getelementptr inbounds [256 x i8], [256 x i8]* %99, i64 0, i64 %102
  %104 = load i8, i8* %103, align 1
  %105 = sext i8 %104 to i32
  %106 = icmp eq i32 %105, 71
  br i1 %106, label %107, label %116

107:                                              ; preds = %95
  %108 = load i32, i32* %6, align 4
  %109 = sub nsw i32 %108, 1
  %110 = sext i32 %109 to i64
  %111 = getelementptr inbounds [256 x i8], [256 x i8]* %17, i64 %110
  %112 = load i32, i32* %7, align 4
  %113 = sub nsw i32 %112, 1
  %114 = sext i32 %113 to i64
  %115 = getelementptr inbounds [256 x i8], [256 x i8]* %111, i64 0, i64 %114
  store i8 67, i8* %115, align 1
  br label %116

116:                                              ; preds = %107, %95
  %117 = load i32, i32* %6, align 4
  %118 = sub nsw i32 %117, 1
  %119 = sext i32 %118 to i64
  %120 = getelementptr inbounds [256 x i8], [256 x i8]* %14, i64 %119
  %121 = load i32, i32* %7, align 4
  %122 = sub nsw i32 %121, 1
  %123 = sext i32 %122 to i64
  %124 = getelementptr inbounds [256 x i8], [256 x i8]* %120, i64 0, i64 %123
  %125 = load i8, i8* %124, align 1
  %126 = sext i8 %125 to i32
  %127 = icmp eq i32 %126, 0
  br i1 %127, label %128, label %129

128:                                              ; preds = %116
  store i32 0, i32* %8, align 4
  br label %129

129:                                              ; preds = %128, %116
  br label %130

130:                                              ; preds = %129
  %131 = load i32, i32* %7, align 4
  %132 = add nsw i32 %131, 1
  store i32 %132, i32* %7, align 4
  br label %29

133:                                              ; preds = %29
  br label %134

134:                                              ; preds = %133
  %135 = load i32, i32* %6, align 4
  %136 = add nsw i32 %135, 1
  store i32 %136, i32* %6, align 4
  br label %18

137:                                              ; preds = %18
  store i32 1, i32* %9, align 4
  br label %138

138:                                              ; preds = %149, %137
  %139 = load i32, i32* %9, align 4
  %140 = load i32, i32* %2, align 4
  %141 = icmp slt i32 %139, %140
  br i1 %141, label %142, label %152

142:                                              ; preds = %138
  %143 = load i32, i32* %9, align 4
  %144 = sub nsw i32 %143, 1
  %145 = sext i32 %144 to i64
  %146 = getelementptr inbounds [256 x i8], [256 x i8]* %17, i64 %145
  %147 = getelementptr inbounds [256 x i8], [256 x i8]* %146, i64 0, i64 0
  %148 = call i32 (i8*, ...) @printf(i8* getelementptr inbounds ([4 x i8], [4 x i8]* @.str.1, i64 0, i64 0), i8* %147)
  br label %149

149:                                              ; preds = %142
  %150 = load i32, i32* %9, align 4
  %151 = add nsw i32 %150, 1
  store i32 %151, i32* %9, align 4
  br label %138

152:                                              ; preds = %138
  %153 = load i32, i32* %2, align 4
  %154 = sub nsw i32 %153, 1
  %155 = sext i32 %154 to i64
  %156 = getelementptr inbounds [256 x i8], [256 x i8]* %17, i64 %155
  %157 = getelementptr inbounds [256 x i8], [256 x i8]* %156, i64 0, i64 0
  %158 = call i32 (i8*, ...) @printf(i8* getelementptr inbounds ([3 x i8], [3 x i8]* @.str.2, i64 0, i64 0), i8* %157)
  store i32 0, i32* %1, align 4
  %159 = load i8*, i8** %3, align 8
  call void @llvm.stackrestore(i8* %159)
  %160 = load i32, i32* %1, align 4
  ret i32 %160
}

declare dso_local i32 @__isoc99_scanf(i8*, ...) #1

; Function Attrs: nounwind
declare i8* @llvm.stacksave() #2

declare dso_local i32 @printf(i8*, ...) #1

; Function Attrs: nounwind
declare void @llvm.stackrestore(i8*) #2


!llvm.module.flags = !{!0}
!llvm.ident = !{!1}

!0 = !{i32 1, !"wchar_size", i32 4}
!1 = !{!"clang version 10.0.0-4ubuntu1 "}
